Certificate:
    Data:
        Version: 1 (0x0)
        Serial Number: 3 (0x3)
    Signature Algorithm: sha1WithRSAEncryption
        Issuer: C=JP, ST=Tokyo, O=TEST_DUMMY_COMPANY, CN=testCA.test_dummy.com
        Validity
            Not Before: Apr 20 07:47:44 2016 GMT
            Not After : Apr 18 07:47:44 2026 GMT
        Subject: C=JP, ST=Tokyo, O=TEST_DUMMY_COMPANY, CN=localhost.test_dummy.com
        Subject Public Key Info:
            Public Key Algorithm: rsaEncryption
                Public-Key: (2048 bit)
                Modulus:
                    00:e4:b5:88:4e:07:74:70:8c:0a:3f:d4:c4:59:67:
                    66:a0:e9:90:98:5f:14:df:04:7d:e1:11:3b:45:5a:
                    3f:ff:26:90:6d:a5:ac:01:81:89:87:d9:46:71:70:
                    fa:b2:31:7e:cc:84:37:c7:42:4b:6e:50:1c:12:cd:
                    88:db:1f:1e:fa:64:7c:fd:cb:0a:ea:96:f8:09:11:
                    b6:5e:de:24:c0:34:c8:90:a1:fe:9d:72:26:90:d6:
                    e4:82:82:7b:6a:3e:b3:19:c2:85:71:55:96:c9:a7:
                    6e:fc:77:32:de:3b:ae:aa:9b:67:0b:38:65:50:9d:
                    65:4c:d4:1a:b2:a9:44:23:ad:03:d3:8e:06:54:9f:
                    7a:94:29:a2:ad:f9:27:65:e0:ee:14:35:ba:fe:93:
                    61:24:74:b4:8d:fb:bd:8e:dd:0d:e4:3f:8e:c5:a1:
                    bf:45:d6:04:dd:f8:81:3f:97:c8:db:f6:f7:b1:5f:
                    eb:63:81:2f:cf:b9:8d:00:ba:62:fa:4d:cf:56:89:
                    0b:d4:b4:49:a2:1e:f6:71:cc:96:56:d0:23:f6:cd:
                    7a:5e:97:4c:07:4b:e5:0e:3d:cb:dc:2a:27:ee:0e:
                    67:cb:23:6d:a9:28:04:4f:a0:cb:8a:cf:a6:64:55:
                    4d:a9:50:91:d5:1c:20:b1:de:67:f5:2b:5d:a9:73:
                    bb:43
                Exponent: 65537 (0x10001)
    Signature Algorithm: sha1WithRSAEncryption
         75:b5:cf:c1:f2:fb:d0:7c:f4:da:74:7a:7a:7e:1c:c7:c9:ca:
         7e:90:f6:70:33:0d:50:7e:30:c5:c6:e0:2c:b8:29:17:80:d6:
         34:fd:0a:5e:f3:4e:c4:43:d9:97:2c:c2:14:80:50:51:67:01:
         62:db:03:74:dd:50:a4:08:67:be:96:b0:cd:f5:26:83:a4:69:
         23:34:09:68:9a:6b:72:fd:27:c7:35:d9:54:63:d3:a4:1c:e0:
         4d:1e:89:5f:0e:7b:a1:96:49:c9:54:a2:23:9a:80:8c:ad:79:
         83:8a:a0:95:27:10:a5:e6:bf:59:79:44:c0:bd:c8:c7:11:7e:
         c3:1c:b0:73:11:87:f6:3f:4f:7f:28:a0:83:b9:64:85:43:c6:
         8a:b9:be:b4:95:e3:cc:72:8f:e7:94:c1:c2:9d:f5:ff:4c:83:
         66:0f:5d:1d:e3:cf:b1:10:58:0a:9e:66:d1:10:bc:a0:a1:34:
         b3:fd:01:d7:b6:86:f4:e1:f2:b5:49:a7:68:e6:7d:2b:c7:23:
         c1:71:dd:2a:f3:04:84:40:d2:0d:ee:67:d2:ef:15:64:86:b2:
         50:98:56:47:1a:44:62:13:f1:7b:f2:6a:f4:88:75:03:4e:74:
         d7:94:1d:cc:bc:e3:f0:bd:1f:81:e5:5f:af:18:2f:7b:e7:79:
         58:82:90:3a
-----BEGIN CERTIFICATE-----
MIIDKzCCAhMCAQMwDQYJKoZIhvcNAQEFBQAwWjELMAkGA1UEBhMCSlAxDjAMBgNV
BAgMBVRva3lvMRswGQYDVQQKDBJURVNUX0RVTU1ZX0NPTVBBTlkxHjAcBgNVBAMM
FXRlc3RDQS50ZXN0X2R1bW15LmNvbTAeFw0xNjA0MjAwNzQ3NDRaFw0yNjA0MTgw
NzQ3NDRaMF0xCzAJBgNVBAYTAkpQMQ4wDAYDVQQIDAVUb2t5bzEbMBkGA1UECgwS
VEVTVF9EVU1NWV9DT01QQU5ZMSEwHwYDVQQDDBhsb2NhbGhvc3QudGVzdF9kdW1t
eS5jb20wggEiMA0GCSqGSIb3DQEBAQUAA4IBDwAwggEKAoIBAQDktYhOB3RwjAo/
1MRZZ2ag6ZCYXxTfBH3hETtFWj//JpBtpawBgYmH2UZxcPqyMX7MhDfHQktuUBwS
zYjbHx76ZHz9ywrqlvgJEbZe3iTANMiQof6dciaQ1uSCgntqPrMZwoVxVZbJp278
dzLeO66qm2cLOGVQnWVM1BqyqUQjrQPTjgZUn3qUKaKt+Sdl4O4UNbr+k2EkdLSN
+72O3Q3kP47Fob9F1gTd+IE/l8jb9vexX+tjgS/PuY0AumL6Tc9WiQvUtEmiHvZx
zJZW0CP2zXpel0wHS+UOPcvcKifuDmfLI22pKARPoMuKz6ZkVU2pUJHVHCCx3mf1
K12pc7tDAgMBAAEwDQYJKoZIhvcNAQEFBQADggEBAHW1z8Hy+9B89Np0enp+HMfJ
yn6Q9nAzDVB+MMXG4Cy4KReA1jT9Cl7zTsRD2ZcswhSAUFFnAWLbA3TdUKQIZ76W
sM31JoOkaSM0CWiaa3L9J8c12VRj06Qc4E0eiV8Oe6GWSclUoiOagIyteYOKoJUn
EKXmv1l5RMC9yMcRfsMcsHMRh/Y/T38ooIO5ZIVDxoq5vrSV48xyj+eUwcKd9f9M
g2YPXR3jz7EQWAqeZtEQvKChNLP9Ade2hvTh8rVJp2jmfSvHI8Fx3SrzBIRA0g3u
Z9LvFWSGslCYVkcaRGIT8XvyavSIdQNOdNeUHcy84/C9H4HlX68YL3vneViCkDo=
-----END CERTIFICATE-----